; Function Attrs: nounwind uwtable
define internal noundef i32 @luaB_getmetatable(ptr noundef %0) #0 {
  tail call void @luaL_checkany(ptr noundef %0, i32 noundef 1) #9
  %2 = tail call i32 @lua_getmetatable(ptr noundef %0, i32 noundef 1) #9
  %.not = icmp eq i32 %2, 0
  br i1 %.not, label %3, label %4

3:                                                ; preds = %1
  tail call void @lua_pushnil(ptr noundef %0) #9
  br label %6

4:                                                ; preds = %1
  %5 = tail call i32 @luaL_getmetafield(ptr noundef %0, i32 noundef 1, ptr noundef nonnull @.str.42) #9
  br label %6

6:                                                ; preds = %4, %3
  ret i32 1
}